; Function Attrs: mustprogress uwtable
define dso_local void @_ZN4Json12StyledWriter15writeWithIndentERKNSt7__cxx1112basic_stringIcSt11char_traitsIcESaIcEEE(ptr noundef nonnull align 8 dereferenceable(105) %0, ptr noundef nonnull align 8 dereferenceable(32) %1) local_unnamed_addr #0 align 2 {
  %3 = getelementptr inbounds i8, ptr %0, i64 32
  %4 = tail call noundef zeroext i1 @_ZNKSt7__cxx1112basic_stringIcSt11char_traitsIcESaIcEE5emptyEv(ptr noundef nonnull align 8 dereferenceable(32) %3) #19
  br i1 %4, label %12, label %5

5:                                                ; preds = %2
  %6 = tail call noundef i64 @_ZNKSt7__cxx1112basic_stringIcSt11char_traitsIcESaIcEE6lengthEv(ptr noundef nonnull align 8 dereferenceable(32) %3) #19
  %7 = add i64 %6, -1
  %8 = tail call noundef nonnull align 1 dereferenceable(1) ptr @_ZNSt7__cxx1112basic_stringIcSt11char_traitsIcESaIcEEixEm(ptr noundef nonnull align 8 dereferenceable(32) %3, i64 noundef %7)
  %9 = load i8, ptr %8, align 1
  switch i8 %9, label %10 [
    i8 32, label %_ZN4Json12StyledWriter11writeIndentEv.exit
    i8 10, label %12
  ]

10:                                               ; preds = %5
  %11 = tail call noundef nonnull align 8 dereferenceable(32) ptr @_ZNSt7__cxx1112basic_stringIcSt11char_traitsIcESaIcEEpLEc(ptr noundef nonnull align 8 dereferenceable(32) %3, i8 noundef signext 10)
  br label %12

12:                                               ; preds = %10, %5, %2
  %13 = getelementptr inbounds i8, ptr %0, i64 64
  %14 = tail call noundef nonnull align 8 dereferenceable(32) ptr @_ZNSt7__cxx1112basic_stringIcSt11char_traitsIcESaIcEEpLERKS4_(ptr noundef nonnull align 8 dereferenceable(32) %3, ptr noundef nonnull align 8 dereferenceable(32) %13)
  br label %_ZN4Json12StyledWriter11writeIndentEv.exit

_ZN4Json12StyledWriter11writeIndentEv.exit:       ; preds = %5, %12
  %15 = tail call noundef nonnull align 8 dereferenceable(32) ptr @_ZNSt7__cxx1112basic_stringIcSt11char_traitsIcESaIcEEpLERKS4_(ptr noundef nonnull align 8 dereferenceable(32) %3, ptr noundef nonnull align 8 dereferenceable(32) %1)
  ret void
}